MODULE windows x86 1FB062A2019D49C4A2B2E4C5AC9D67071 BreakpadDemo.pdb
INFO CODE_ID 5E8C5FA31A000 BreakpadDemo.exe
PUBLIC 1160 0 google_breakpad::ExceptionHandler::ExceptionHandler(std::basic_string<wchar_t,std::char_traits<wchar_t>,std::allocator<wchar_t> > const &,bool (*)(void *,_EXCEPTION_POINTERS *,MDRawAssertionInfo *),bool (*)(wchar_t const *,wchar_t const *,void *,_EXCEPTION_POINTERS *,MDRawAssertionInfo *,bool),void *,int)
PUBLIC 1220 0 google_breakpad::ExceptionHandler::ExceptionHandler(std::basic_string<wchar_t,std::char_traits<wchar_t>,std::allocator<wchar_t> > const &,bool (*)(void *,_EXCEPTION_POINTERS *,MDRawAssertionInfo *),bool (*)(wchar_t const *,wchar_t const *,void *,_EXCEPTION_POINTERS *,MDRawAssertionInfo *,bool),void *,int,_MINIDUMP_TYPE,wchar_t const *,google_breakpad::CustomClientInfo const *)
PUBLIC 12e0 0 google_breakpad::ExceptionHandler::ExceptionHandler(std::basic_string<wchar_t,std::char_traits<wchar_t>,std::allocator<wchar_t> > const &,bool (*)(void *,_EXCEPTION_POINTERS *,MDRawAssertionInfo *),bool (*)(wchar_t const *,wchar_t const *,void *,_EXCEPTION_POINTERS *,MDRawAssertionInfo *,bool),void *,int,_MINIDUMP_TYPE,void *,google_breakpad::CustomClientInfo const *)
PUBLIC 13a0 0 google_breakpad::ExceptionHandler::ExceptionHandler(std::basic_string<wchar_t,std::char_traits<wchar_t>,std::allocator<wchar_t> > const &,bool (*)(void *,_EXCEPTION_POINTERS *,MDRawAssertionInfo *),bool (*)(wchar_t const *,wchar_t const *,void *,_EXCEPTION_POINTERS *,MDRawAssertionInfo *,bool),void *,int,google_breakpad::CrashGenerationClient *)
PUBLIC 1460 0 google_breakpad::ExceptionHandler::~ExceptionHandler()
PUBLIC 16f0 0 google_breakpad::ExceptionHandler::RequestUpload(unsigned long)
PUBLIC 1720 0 google_breakpad::ExceptionHandler::WriteMinidump()
PUBLIC 17b0 0 google_breakpad::ExceptionHandler::WriteMinidumpForException(_EXCEPTION_POINTERS *)
PUBLIC 1810 0 google_breakpad::ExceptionHandler::WriteMinidump(std::basic_string<wchar_t,std::char_traits<wchar_t>,std::allocator<wchar_t> > const &,bool (*)(wchar_t const *,wchar_t const *,void *,_EXCEPTION_POINTERS *,MDRawAssertionInfo *,bool),void *,_MINIDUMP_TYPE)
PUBLIC 18b0 0 google_breakpad::ExceptionHandler::WriteMinidumpForChild(void *,unsigned long,std::basic_string<wchar_t,std::char_traits<wchar_t>,std::allocator<wchar_t> > const &,bool (*)(wchar_t const *,wchar_t const *,void *,_EXCEPTION_POINTERS *,MDRawAssertionInfo *,bool),void *,_MINIDUMP_TYPE)
PUBLIC 1aa0 0 google_breakpad::ExceptionHandler::RegisterAppMemory(void *,unsigned int)
PUBLIC 1b50 0 google_breakpad::ExceptionHandler::UnregisterAppMemory(void *)
PUBLIC 1be0 0 google_breakpad::ExceptionHandler::Initialize(std::basic_string<wchar_t,std::char_traits<wchar_t>,std::allocator<wchar_t> > const &,bool (*)(void *,_EXCEPTION_POINTERS *,MDRawAssertionInfo *),bool (*)(wchar_t const *,wchar_t const *,void *,_EXCEPTION_POINTERS *,MDRawAssertionInfo *,bool),void *,int,_MINIDUMP_TYPE,wchar_t const *,void *,google_breakpad::CrashGenerationClient *,google_breakpad::CustomClientInfo const *)
PUBLIC 2060 0 google_breakpad::ExceptionHandler::ExceptionHandlerThreadMain(void *)
PUBLIC 20e0 0 google_breakpad::ExceptionHandler::HandleException(_EXCEPTION_POINTERS *)
PUBLIC 2250 0 google_breakpad::ExceptionHandler::HandleInvalidParameter(wchar_t const *,wchar_t const *,wchar_t const *,unsigned int,unsigned int)
PUBLIC 2480 0 google_breakpad::ExceptionHandler::HandlePureVirtualCall()
PUBLIC 2650 0 google_breakpad::ExceptionHandler::WriteMinidumpOnHandlerThread(_EXCEPTION_POINTERS *,MDRawAssertionInfo *)
PUBLIC 2730 0 google_breakpad::ExceptionHandler::WriteMinidumpWithException(unsigned long,_EXCEPTION_POINTERS *,MDRawAssertionInfo *)
PUBLIC 2800 0 google_breakpad::ExceptionHandler::MinidumpWriteDumpCallback(void *,_MINIDUMP_CALLBACK_INPUT * const,_MINIDUMP_CALLBACK_OUTPUT *)
PUBLIC 28d0 0 google_breakpad::ExceptionHandler::WriteMinidumpWithExceptionForProcess(unsigned long,_EXCEPTION_POINTERS *,MDRawAssertionInfo *,void *,bool)
PUBLIC 2c00 0 google_breakpad::ExceptionHandler::UpdateNextID()
PUBLIC 2d40 0 std::_Compressed_pair<std::allocator<google_breakpad::ExceptionHandler *>,std::_Vector_val<std::_Simple_types<google_breakpad::ExceptionHandler *> >,1>::_Compressed_pair<std::allocator<google_breakpad::ExceptionHandler *>,std::_Vector_val<std::_Simple_types<google_breakpad::ExceptionHandler *> >,1><>(std::_Zero_then_variadic_args_t)
PUBLIC 2d60 0 std::_Compressed_pair<std::allocator<std::_List_node<google_breakpad::AppMemory,void *> >,std::_List_val<std::_List_simple_types<google_breakpad::AppMemory> >,1>::_Compressed_pair<std::allocator<std::_List_node<google_breakpad::AppMemory,void *> >,std::_List_val<std::_List_simple_types<google_breakpad::AppMemory> >,1><>(std::_Zero_then_variadic_args_t)
PUBLIC 2d80 0 std::_Compressed_pair<std::allocator<wchar_t>,std::_String_val<std::_Simple_types<wchar_t> >,1>::_Compressed_pair<std::allocator<wchar_t>,std::_String_val<std::_Simple_types<wchar_t> >,1><>(std::_Zero_then_variadic_args_t)
PUBLIC m 2da0 0 std::_Adl_verify_range1<std::_List_iterator<std::_List_val<std::_List_simple_types<google_breakpad::AppMemory> > >,std::_List_iterator<std::_List_val<std::_List_simple_types<google_breakpad::AppMemory> > > >(std::_List_iterator<std::_List_val<std::_List_simple_types<google_breakpad::AppMemory> > > const &,std::_List_iterator<std::_List_val<std::_List_simple_types<google_breakpad::AppMemory> > > const &,std::integral_constant<bool,0>)
PUBLIC 2db0 0 std::_Adl_verify_range<std::_List_iterator<std::_List_val<std::_List_simple_types<google_breakpad::AppMemory> > >,std::_List_iterator<std::_List_val<std::_List_simple_types<google_breakpad::AppMemory> > > >(std::_List_iterator<std::_List_val<std::_List_simple_types<google_breakpad::AppMemory> > > const &,std::_List_iterator<std::_List_val<std::_List_simple_types<google_breakpad::AppMemory> > > const &)
PUBLIC 2de0 0 std::_Allocate<8,std::_Default_allocate_traits,0>(unsigned int)
PUBLIC 2e20 0 std::_Allocate_manually_vector_aligned<std::_Default_allocate_traits>(unsigned int)
PUBLIC 2e90 0 std::_List_buy<google_breakpad::AppMemory,std::allocator<google_breakpad::AppMemory> >::_Buynode<google_breakpad::AppMemory const &>(std::_List_node<google_breakpad::AppMemory,void *> *,std::_List_node<google_breakpad::AppMemory,void *> *,google_breakpad::AppMemory const &)
PUBLIC m 2f60 0 std::_Convert_size<unsigned int>(unsigned int)
PUBLIC 2f70 0 std::_Copy_memmove<google_breakpad::ExceptionHandler * *,google_breakpad::ExceptionHandler * *>(google_breakpad::ExceptionHandler * *,google_breakpad::ExceptionHandler * *,google_breakpad::ExceptionHandler * *)
PUBLIC 2fb0 0 std::_Deallocate<8,0>(void *,unsigned int)
PUBLIC 2fe0 0 std::_Destroy_range<std::allocator<google_breakpad::ExceptionHandler *> >(google_breakpad::ExceptionHandler * *,google_breakpad::ExceptionHandler * *,std::allocator<google_breakpad::ExceptionHandler *> &)
PUBLIC 3010 0 std::vector<google_breakpad::ExceptionHandler *,std::allocator<google_breakpad::ExceptionHandler *> >::_Emplace_back_with_unused_capacity<google_breakpad::ExceptionHandler *>(google_breakpad::ExceptionHandler * &&)
PUBLIC 30a0 0 std::vector<google_breakpad::ExceptionHandler *,std::allocator<google_breakpad::ExceptionHandler *> >::_Emplace_reallocate<google_breakpad::ExceptionHandler *>(google_breakpad::ExceptionHandler * * const,google_breakpad::ExceptionHandler * &&)
PUBLIC 3280 0 std::_Find_unchecked1<std::_List_unchecked_iterator<std::_List_val<std::_List_simple_types<google_breakpad::AppMemory> > >,void *>(std::_List_unchecked_iterator<std::_List_val<std::_List_simple_types<google_breakpad::AppMemory> > >,std::_List_unchecked_iterator<std::_List_val<std::_List_simple_types<google_breakpad::AppMemory> > >,void * const &,std::integral_constant<bool,0>)
PUBLIC 32d0 0 std::_Find_unchecked<std::_List_unchecked_iterator<std::_List_val<std::_List_simple_types<google_breakpad::AppMemory> > >,void *>(std::_List_unchecked_iterator<std::_List_val<std::_List_simple_types<google_breakpad::AppMemory> > >,std::_List_unchecked_iterator<std::_List_val<std::_List_simple_types<google_breakpad::AppMemory> > >,void * const &)
PUBLIC 3300 0 std::_List_node<google_breakpad::AppMemory,void *>::_Freenode0<std::allocator<std::_List_node<google_breakpad::AppMemory,void *> > >(std::allocator<std::_List_node<google_breakpad::AppMemory,void *> > &,std::_List_node<google_breakpad::AppMemory,void *> *)
PUBLIC 3380 0 std::_Get_size_of_n<2>(unsigned int)
PUBLIC 33b0 0 std::_Get_size_of_n<4>(unsigned int)
PUBLIC 33e0 0 std::_Get_size_of_n<24>(unsigned int)
PUBLIC 3410 0 std::_Get_unwrapped<std::_List_iterator<std::_List_val<std::_List_simple_types<google_breakpad::AppMemory> > >,0>(std::_List_iterator<std::_List_val<std::_List_simple_types<google_breakpad::AppMemory> > > const &)
PUBLIC 3430 0 std::_Idl_distance1<google_breakpad::ExceptionHandler * *,google_breakpad::ExceptionHandler * *>(google_breakpad::ExceptionHandler * * const &,google_breakpad::ExceptionHandler * * const &,std::random_access_iterator_tag)
PUBLIC 3450 0 std::_Idl_distance<google_breakpad::ExceptionHandler * *,google_breakpad::ExceptionHandler * *>(google_breakpad::ExceptionHandler * * const &,google_breakpad::ExceptionHandler * * const &)
PUBLIC 3470 0 std::list<google_breakpad::AppMemory,std::allocator<google_breakpad::AppMemory> >::_Insert<google_breakpad::AppMemory const &>(std::_List_unchecked_const_iterator<std::_List_val<std::_List_simple_types<google_breakpad::AppMemory> >,std::_Iterator_base0>,google_breakpad::AppMemory const &)
PUBLIC 34d0 0 std::_Max_value<unsigned int>(unsigned int const &,unsigned int const &)
PUBLIC 3500 0 std::_Min_value<unsigned int>(unsigned int const &,unsigned int const &)
PUBLIC m 3530 0 std::_Move_unchecked1<google_breakpad::ExceptionHandler * *,google_breakpad::ExceptionHandler * *>(google_breakpad::ExceptionHandler * *,google_breakpad::ExceptionHandler * *,google_breakpad::ExceptionHandler * *,std::_Trivially_copyable_ptr_iterator_tag)
PUBLIC 3550 0 std::_Move_unchecked<google_breakpad::ExceptionHandler * *,google_breakpad::ExceptionHandler * *>(google_breakpad::ExceptionHandler * *,google_breakpad::ExceptionHandler * *,google_breakpad::ExceptionHandler * *)
PUBLIC 3590 0 std::_Pocca<std::allocator<wchar_t> >(std::allocator<wchar_t> &,std::allocator<wchar_t> const &)
PUBLIC 35b0 0 std::_Pocma<std::allocator<wchar_t> >(std::allocator<wchar_t> &,std::allocator<wchar_t> &)
PUBLIC 35d0 0 std::_Pocma<std::allocator<wchar_t> >(std::allocator<wchar_t> &,std::allocator<wchar_t> &,std::integral_constant<bool,1>)
PUBLIC 35f0 0 std::basic_string<wchar_t,std::char_traits<wchar_t>,std::allocator<wchar_t> >::_Reallocate_for<<lambda_03628ca18370b1f44a99b655e704819b>,wchar_t const *>(unsigned int,<lambda_03628ca18370b1f44a99b655e704819b>,wchar_t const *)
PUBLIC m 36d0 0 std::_Seek_wrapped<google_breakpad::ExceptionHandler *>(google_breakpad::ExceptionHandler * * &,google_breakpad::ExceptionHandler * * const)
PUBLIC 36e0 0 std::_Seek_wrapped<std::_List_iterator<std::_List_val<std::_List_simple_types<google_breakpad::AppMemory> > >,std::_List_unchecked_iterator<std::_List_val<std::_List_simple_types<google_breakpad::AppMemory> > >,0>(std::_List_iterator<std::_List_val<std::_List_simple_types<google_breakpad::AppMemory> > > &,std::_List_unchecked_iterator<std::_List_val<std::_List_simple_types<google_breakpad::AppMemory> > > const &)
PUBLIC 3700 0 std::_Uninitialized_move<google_breakpad::ExceptionHandler * *,google_breakpad::ExceptionHandler * *,std::allocator<google_breakpad::ExceptionHandler *> >(google_breakpad::ExceptionHandler * * const,google_breakpad::ExceptionHandler * * const,google_breakpad::ExceptionHandler * *,std::allocator<google_breakpad::ExceptionHandler *> &)
PUBLIC m 3790 0 std::_Default_allocator_traits<std::allocator<std::_List_node<google_breakpad::AppMemory,void *> > >::construct<std::_List_node<google_breakpad::AppMemory,void *> *,std::_List_node<google_breakpad::AppMemory,void *> * &>(std::allocator<std::_List_node<google_breakpad::AppMemory,void *> > &,std::_List_node<google_breakpad::AppMemory,void *> * * const,std::_List_node<google_breakpad::AppMemory,void *> * &)
PUBLIC 37c0 0 std::_Default_allocator_traits<std::allocator<std::_List_node<google_breakpad::AppMemory,void *> > >::construct<google_breakpad::AppMemory,google_breakpad::AppMemory const &>(std::allocator<std::_List_node<google_breakpad::AppMemory,void *> > &,google_breakpad::AppMemory * const,google_breakpad::AppMemory const &)
PUBLIC 3800 0 std::vector<google_breakpad::ExceptionHandler *,std::allocator<google_breakpad::ExceptionHandler *> >::emplace_back<google_breakpad::ExceptionHandler *>(google_breakpad::ExceptionHandler * &&)
PUBLIC 3860 0 std::find<std::_List_iterator<std::_List_val<std::_List_simple_types<google_breakpad::AppMemory> > >,void *>(std::_List_iterator<std::_List_val<std::_List_simple_types<google_breakpad::AppMemory> > >,std::_List_iterator<std::_List_val<std::_List_simple_types<google_breakpad::AppMemory> > >,void * const &)
PUBLIC 38d0 0 std::max<unsigned __int64>(unsigned __int64 const &,unsigned __int64 const &)
PUBLIC 3910 0 std::min<unsigned __int64>(unsigned __int64 const &,unsigned __int64 const &)
PUBLIC 3950 0 std::_List_alloc<std::_List_base_types<google_breakpad::AppMemory,std::allocator<google_breakpad::AppMemory> > >::_List_alloc<std::_List_base_types<google_breakpad::AppMemory,std::allocator<google_breakpad::AppMemory> > >()
PUBLIC 3990 0 std::_List_buy<google_breakpad::AppMemory,std::allocator<google_breakpad::AppMemory> >::_List_buy<google_breakpad::AppMemory,std::allocator<google_breakpad::AppMemory> >()
PUBLIC m 39b0 0 std::_List_const_iterator<std::_List_val<std::_List_simple_types<google_breakpad::AppMemory> > >::_List_const_iterator<std::_List_val<std::_List_simple_types<google_breakpad::AppMemory> > >(std::_List_node<google_breakpad::AppMemory,void *> *,std::_List_val<std::_List_simple_types<google_breakpad::AppMemory> > const *)
PUBLIC 39d0 0 std::_List_const_iterator<std::_List_val<std::_List_simple_types<google_breakpad::AppMemory> > >::_List_const_iterator<std::_List_val<std::_List_simple_types<google_breakpad::AppMemory> > >()
PUBLIC 39f0 0 std::_List_iterator<std::_List_val<std::_List_simple_types<google_breakpad::AppMemory> > >::_List_iterator<std::_List_val<std::_List_simple_types<google_breakpad::AppMemory> > >(std::_List_node<google_breakpad::AppMemory,void *> *,std::_List_val<std::_List_simple_types<google_breakpad::AppMemory> > const *)
PUBLIC m 3a10 0 std::_List_unchecked_const_iterator<std::_List_val<std::_List_simple_types<google_breakpad::AppMemory> >,std::_Iterator_base0>::_List_unchecked_const_iterator<std::_List_val<std::_List_simple_types<google_breakpad::AppMemory> >,std::_Iterator_base0>(std::_List_node<google_breakpad::AppMemory,void *> *,std::_List_val<std::_List_simple_types<google_breakpad::AppMemory> > const *)
PUBLIC 3a40 0 std::_List_unchecked_const_iterator<std::_List_val<std::_List_simple_types<google_breakpad::AppMemory> >,std::_Iterator_base0>::_List_unchecked_const_iterator<std::_List_val<std::_List_simple_types<google_breakpad::AppMemory> >,std::_Iterator_base0>()
PUBLIC m 3a60 0 QWeakPointer<QObject>::QWeakPointer<QObject>()
PUBLIC 3a90 0 std::_String_alloc<std::_String_base_types<wchar_t,std::allocator<wchar_t> > >::_String_alloc<std::_String_base_types<wchar_t,std::allocator<wchar_t> > >()
PUBLIC 3ab0 0 std::_String_val<std::_Simple_types<wchar_t> >::_String_val<std::_Simple_types<wchar_t> >()
PUBLIC 3ae0 0 std::_Vector_alloc<std::_Vec_base_types<google_breakpad::ExceptionHandler *,std::allocator<google_breakpad::ExceptionHandler *> > >::_Vector_alloc<std::_Vec_base_types<google_breakpad::ExceptionHandler *,std::allocator<google_breakpad::ExceptionHandler *> > >()
PUBLIC 3b00 0 std::_Vector_val<std::_Simple_types<google_breakpad::ExceptionHandler *> >::_Vector_val<std::_Simple_types<google_breakpad::ExceptionHandler *> >()
PUBLIC m 3b30 0 std::allocator<google_breakpad::ExceptionHandler *>::allocator<google_breakpad::ExceptionHandler *>()
PUBLIC 3b40 0 std::basic_string<wchar_t,std::char_traits<wchar_t>,std::allocator<wchar_t> >::basic_string<wchar_t,std::char_traits<wchar_t>,std::allocator<wchar_t> >()
PUBLIC 3b90 0 std::list<google_breakpad::AppMemory,std::allocator<google_breakpad::AppMemory> >::list<google_breakpad::AppMemory,std::allocator<google_breakpad::AppMemory> >()
PUBLIC m 3bb0 0 QFlags<QDir::Filter>::QFlags<QDir::Filter>(QDir::Filter)
PUBLIC 3bd0 0 std::vector<google_breakpad::ExceptionHandler *,std::allocator<google_breakpad::ExceptionHandler *> >::vector<google_breakpad::ExceptionHandler *,std::allocator<google_breakpad::ExceptionHandler *> >()
PUBLIC 3c10 0 google_breakpad::AutoExceptionHandler::AutoExceptionHandler()
PUBLIC 3ca0 0 google_breakpad::MinidumpCallbackContext::MinidumpCallbackContext()
PUBLIC 3cd0 0 std::_Compressed_pair<std::allocator<wchar_t>,std::_String_val<std::_Simple_types<wchar_t> >,1>::~_Compressed_pair<std::allocator<wchar_t>,std::_String_val<std::_Simple_types<wchar_t> >,1>()
PUBLIC 3cf0 0 std::_List_alloc<std::_List_base_types<google_breakpad::AppMemory,std::allocator<google_breakpad::AppMemory> > >::~_List_alloc<std::_List_base_types<google_breakpad::AppMemory,std::allocator<google_breakpad::AppMemory> > >()
PUBLIC 3d40 0 std::_List_buy<google_breakpad::AppMemory,std::allocator<google_breakpad::AppMemory> >::~_List_buy<google_breakpad::AppMemory,std::allocator<google_breakpad::AppMemory> >()
PUBLIC 3d60 0 std::_String_alloc<std::_String_base_types<wchar_t,std::allocator<wchar_t> > >::~_String_alloc<std::_String_base_types<wchar_t,std::allocator<wchar_t> > >()
PUBLIC 3d80 0 std::_String_val<std::_Simple_types<wchar_t> >::~_String_val<std::_Simple_types<wchar_t> >()
PUBLIC 3da0 0 std::basic_string<wchar_t,std::char_traits<wchar_t>,std::allocator<wchar_t> >::~basic_string<wchar_t,std::char_traits<wchar_t>,std::allocator<wchar_t> >()
PUBLIC 3df0 0 std::list<google_breakpad::AppMemory,std::allocator<google_breakpad::AppMemory> >::~list<google_breakpad::AppMemory,std::allocator<google_breakpad::AppMemory> >()
PUBLIC 3e40 0 google_breakpad::scoped_ptr<google_breakpad::CrashGenerationClient>::~scoped_ptr<google_breakpad::CrashGenerationClient>()
PUBLIC 3e80 0 std::vector<google_breakpad::ExceptionHandler *,std::allocator<google_breakpad::ExceptionHandler *> >::~vector<google_breakpad::ExceptionHandler *,std::allocator<google_breakpad::ExceptionHandler *> >()
PUBLIC 3ec0 0 google_breakpad::AutoExceptionHandler::~AutoExceptionHandler()
PUBLIC m 3f10 0 QListSpecialMethods<QString>::~QListSpecialMethods<QString>()
PUBLIC 3f20 0 operator new(unsigned int,void *)
PUBLIC 3f30 0 std::basic_string<wchar_t,std::char_traits<wchar_t>,std::allocator<wchar_t> >::operator=(std::basic_string<wchar_t,std::char_traits<wchar_t>,std::allocator<wchar_t> > &&)
PUBLIC 3fc0 0 std::basic_string<wchar_t,std::char_traits<wchar_t>,std::allocator<wchar_t> >::operator=(std::basic_string<wchar_t,std::char_traits<wchar_t>,std::allocator<wchar_t> > const &)
PUBLIC 4030 0 std::basic_string<wchar_t,std::char_traits<wchar_t>,std::allocator<wchar_t> >::operator=(wchar_t const * const)
PUBLIC m 4050 0 std::_List_const_iterator<std::_List_val<std::_List_simple_types<google_breakpad::AppMemory> > >::operator==(std::_List_const_iterator<std::_List_val<std::_List_simple_types<google_breakpad::AppMemory> > > const &)
PUBLIC 4080 0 std::_Vector_const_iterator<std::_Vector_val<std::_Simple_types<google_breakpad::ExceptionHandler *> > >::operator==(std::_Vector_const_iterator<std::_Vector_val<std::_Simple_types<google_breakpad::ExceptionHandler *> > > const &)
PUBLIC 40c0 0 google_breakpad::AppMemory::operator==(void const *)
PUBLIC m 4110 0 std::_List_const_iterator<std::_List_val<std::_List_simple_types<google_breakpad::AppMemory> > >::operator!=(std::_List_const_iterator<std::_List_val<std::_List_simple_types<google_breakpad::AppMemory> > > const &)
PUBLIC 4150 0 std::_Vector_const_iterator<std::_Vector_val<std::_Simple_types<google_breakpad::ExceptionHandler *> > >::operator!=(std::_Vector_const_iterator<std::_Vector_val<std::_Simple_types<google_breakpad::ExceptionHandler *> > > const &)
PUBLIC 4190 0 std::_List_const_iterator<std::_List_val<std::_List_simple_types<google_breakpad::AppMemory> > >::operator->()
PUBLIC m 41b0 0 QFlag::operator int()
PUBLIC m 41c0 0 std::_List_const_iterator<std::_List_val<std::_List_simple_types<google_breakpad::AppMemory> > >::operator*()
PUBLIC m 41e0 0 std::_List_iterator<std::_List_val<std::_List_simple_types<google_breakpad::AppMemory> > >::operator*()
PUBLIC 4200 0 std::_Vector_iterator<std::_Vector_val<std::_Simple_types<google_breakpad::ExceptionHandler *> > >::operator*()
PUBLIC 4220 0 std::_List_const_iterator<std::_List_val<std::_List_simple_types<google_breakpad::AppMemory> > >::operator++(int)
PUBLIC m 4250 0 std::_List_const_iterator<std::_List_val<std::_List_simple_types<google_breakpad::AppMemory> > >::operator++()
PUBLIC 4270 0 std::_List_unchecked_iterator<std::_List_val<std::_List_simple_types<google_breakpad::AppMemory> > >::operator++()
PUBLIC m 4290 0 std::_Vector_const_iterator<std::_Vector_val<std::_Simple_types<google_breakpad::ExceptionHandler *> > >::operator++()
PUBLIC 42b0 0 std::_Vector_iterator<std::_Vector_val<std::_Simple_types<google_breakpad::ExceptionHandler *> > >::operator++()
PUBLIC 42d0 0 <lambda_03628ca18370b1f44a99b655e704819b>::operator()(wchar_t * const,unsigned int,wchar_t const * const)
PUBLIC 4310 0 std::vector<google_breakpad::ExceptionHandler *,std::allocator<google_breakpad::ExceptionHandler *> >::`scalar deleting destructor'(unsigned int)
PUBLIC 4340 0 google_breakpad::CrashGenerationClient::`scalar deleting destructor'(unsigned int)
PUBLIC 4380 0 google_breakpad::ExceptionHandler::IsOutOfProcess()
PUBLIC 43b0 0 std::_Adjust_manually_vector_aligned(void * &,unsigned int &)
PUBLIC m 4420 0 std::_Iterator_base0::_Adopt(void const *)
PUBLIC 4430 0 std::_Default_allocate_traits::_Allocate(unsigned int)
PUBLIC 4450 0 std::basic_string<wchar_t,std::char_traits<wchar_t>,std::allocator<wchar_t> >::_Assign_rv_contents(std::basic_string<wchar_t,std::char_traits<wchar_t>,std::allocator<wchar_t> > &&,std::integral_constant<bool,1>)
PUBLIC 4480 0 std::basic_string<wchar_t,std::char_traits<wchar_t>,std::allocator<wchar_t> >::_Assign_rv_contents_with_alloc_always_equal(std::basic_string<wchar_t,std::char_traits<wchar_t>,std::allocator<wchar_t> > &&,std::integral_constant<bool,1>)
PUBLIC 4510 0 std::_List_alloc<std::_List_base_types<google_breakpad::AppMemory,std::allocator<google_breakpad::AppMemory> > >::_Buyheadnode()
PUBLIC 4530 0 std::_List_alloc<std::_List_base_types<google_breakpad::AppMemory,std::allocator<google_breakpad::AppMemory> > >::_Buynode0(std::_List_node<google_breakpad::AppMemory,void *> *,std::_List_node<google_breakpad::AppMemory,void *> *)
PUBLIC 4620 0 std::basic_string<wchar_t,std::char_traits<wchar_t>,std::allocator<wchar_t> >::_Calculate_growth(unsigned int)
PUBLIC 46a0 0 std::vector<google_breakpad::ExceptionHandler *,std::allocator<google_breakpad::ExceptionHandler *> >::_Calculate_growth(unsigned int)
PUBLIC 46f0 0 std::vector<google_breakpad::ExceptionHandler *,std::allocator<google_breakpad::ExceptionHandler *> >::_Change_array(google_breakpad::ExceptionHandler * * const,unsigned int,unsigned int)
PUBLIC 4790 0 std::_String_alloc<std::_String_base_types<wchar_t,std::allocator<wchar_t> > >::_Copy_alloc(std::allocator<wchar_t> const &)
PUBLIC 47c0 0 std::vector<google_breakpad::ExceptionHandler *,std::allocator<google_breakpad::ExceptionHandler *> >::_Destroy(google_breakpad::ExceptionHandler * *,google_breakpad::ExceptionHandler * *)
PUBLIC 47f0 0 std::_List_alloc<std::_List_base_types<google_breakpad::AppMemory,std::allocator<google_breakpad::AppMemory> > >::_Freeheadnode(std::_List_node<google_breakpad::AppMemory,void *> *)
PUBLIC 4820 0 std::_List_buy<google_breakpad::AppMemory,std::allocator<google_breakpad::AppMemory> >::_Freenode(std::_List_node<google_breakpad::AppMemory,void *> *)
PUBLIC m 4870 0 std::_List_alloc<std::_List_base_types<google_breakpad::AppMemory,std::allocator<google_breakpad::AppMemory> > >::_Get_data()
PUBLIC 4890 0 std::_Iterator_base0::_Getcont()
PUBLIC 48a0 0 std::vector<google_breakpad::ExceptionHandler *,std::allocator<google_breakpad::ExceptionHandler *> >::_Has_unused_capacity()
PUBLIC 48e0 0 std::list<google_breakpad::AppMemory,std::allocator<google_breakpad::AppMemory> >::_Incsize(unsigned int)
PUBLIC 4930 0 std::_String_val<std::_Simple_types<wchar_t> >::_Large_string_engaged()
PUBLIC 4960 0 std::list<google_breakpad::AppMemory,std::allocator<google_breakpad::AppMemory> >::_Make_iter(std::_List_const_iterator<std::_List_val<std::_List_simple_types<google_breakpad::AppMemory> > >)
PUBLIC 49c0 0 std::_String_alloc<std::_String_base_types<wchar_t,std::allocator<wchar_t> > >::_Move_alloc(std::allocator<wchar_t> &)
PUBLIC m 49f0 0 std::_Vector_alloc<std::_Vec_base_types<google_breakpad::ExceptionHandler *,std::allocator<google_breakpad::ExceptionHandler *> > >::_Myend()
PUBLIC m 4a10 0 std::_Vector_alloc<std::_Vec_base_types<google_breakpad::ExceptionHandler *,std::allocator<google_breakpad::ExceptionHandler *> > >::_Myfirst()
PUBLIC m 4a30 0 std::_Vector_alloc<std::_Vec_base_types<google_breakpad::ExceptionHandler *,std::allocator<google_breakpad::ExceptionHandler *> > >::_Mylast()
PUBLIC m 4a50 0 std::_String_val<std::_Simple_types<wchar_t> >::_Myptr()
PUBLIC m 4a90 0 std::_String_alloc<std::_String_base_types<wchar_t,std::allocator<wchar_t> > >::_Orphan_all()
PUBLIC 4ab0 0 std::vector<google_breakpad::ExceptionHandler *,std::allocator<google_breakpad::ExceptionHandler *> >::_Orphan_range(google_breakpad::ExceptionHandler * *,google_breakpad::ExceptionHandler * *)
PUBLIC 4ac0 0 std::_List_const_iterator<std::_List_val<std::_List_simple_types<google_breakpad::AppMemory> > >::_Seek_to(std::_List_unchecked_const_iterator<std::_List_val<std::_List_simple_types<google_breakpad::AppMemory> >,std::_Iterator_base0>)
PUBLIC 4ae0 0 std::list<google_breakpad::AppMemory,std::allocator<google_breakpad::AppMemory> >::_Tidy()
PUBLIC 4b00 0 std::vector<google_breakpad::ExceptionHandler *,std::allocator<google_breakpad::ExceptionHandler *> >::_Tidy()
PUBLIC 4b90 0 std::basic_string<wchar_t,std::char_traits<wchar_t>,std::allocator<wchar_t> >::_Tidy_deallocate()
PUBLIC 4c40 0 std::basic_string<wchar_t,std::char_traits<wchar_t>,std::allocator<wchar_t> >::_Tidy_init()
PUBLIC 4c90 0 std::vector<google_breakpad::ExceptionHandler *,std::allocator<google_breakpad::ExceptionHandler *> >::_Umove(google_breakpad::ExceptionHandler * *,google_breakpad::ExceptionHandler * *,google_breakpad::ExceptionHandler * *)
PUBLIC 4cc0 0 std::vector<google_breakpad::ExceptionHandler *,std::allocator<google_breakpad::ExceptionHandler *> >::_Umove_if_noexcept1(google_breakpad::ExceptionHandler * *,google_breakpad::ExceptionHandler * *,google_breakpad::ExceptionHandler * *,std::integral_constant<bool,1>)
PUBLIC 4cf0 0 std::vector<google_breakpad::ExceptionHandler *,std::allocator<google_breakpad::ExceptionHandler *> >::_Umove_if_noexcept(google_breakpad::ExceptionHandler * *,google_breakpad::ExceptionHandler * *,google_breakpad::ExceptionHandler * *)
PUBLIC 4d20 0 std::list<google_breakpad::AppMemory,std::allocator<google_breakpad::AppMemory> >::_Unchecked_end()
PUBLIC 4d50 0 std::list<google_breakpad::AppMemory,std::allocator<google_breakpad::AppMemory> >::_Unlinknode(std::_List_const_iterator<std::_List_val<std::_List_simple_types<google_breakpad::AppMemory> > >)
PUBLIC 4da0 0 std::_List_iterator<std::_List_val<std::_List_simple_types<google_breakpad::AppMemory> > >::_Unwrapped()
PUBLIC 4dd0 0 std::basic_string<wchar_t,std::char_traits<wchar_t>,std::allocator<wchar_t> >::_Xlen()
PUBLIC 4de0 0 std::vector<google_breakpad::ExceptionHandler *,std::allocator<google_breakpad::ExceptionHandler *> >::_Xlength()
PUBLIC 4df0 0 std::vector<google_breakpad::ExceptionHandler *,std::allocator<google_breakpad::ExceptionHandler *> >::_Xrange()
PUBLIC 4e00 0 std::allocator<google_breakpad::ExceptionHandler *>::allocate(unsigned int)
PUBLIC 4e30 0 std::allocator<std::_List_node<google_breakpad::AppMemory,void *> >::allocate(unsigned int)
PUBLIC 4e60 0 std::allocator<wchar_t>::allocate(unsigned int)
PUBLIC 4e90 0 std::_WChar_traits<wchar_t>::assign(wchar_t &,wchar_t const &)
PUBLIC 4eb0 0 std::basic_string<wchar_t,std::char_traits<wchar_t>,std::allocator<wchar_t> >::assign(wchar_t const * const)
PUBLIC 4ee0 0 std::basic_string<wchar_t,std::char_traits<wchar_t>,std::allocator<wchar_t> >::assign(wchar_t const * const,unsigned int)
PUBLIC 4f70 0 std::vector<google_breakpad::ExceptionHandler *,std::allocator<google_breakpad::ExceptionHandler *> >::at(unsigned int)
PUBLIC 4fa0 0 std::vector<google_breakpad::ExceptionHandler *,std::allocator<google_breakpad::ExceptionHandler *> >::back()
PUBLIC 4fc0 0 std::list<google_breakpad::AppMemory,std::allocator<google_breakpad::AppMemory> >::begin()
PUBLIC 5030 0 std::vector<google_breakpad::ExceptionHandler *,std::allocator<google_breakpad::ExceptionHandler *> >::begin()
PUBLIC 5090 0 std::basic_string<wchar_t,std::char_traits<wchar_t>,std::allocator<wchar_t> >::c_str()
PUBLIC 50e0 0 std::vector<google_breakpad::ExceptionHandler *,std::allocator<google_breakpad::ExceptionHandler *> >::capacity()
PUBLIC 5110 0 std::list<google_breakpad::AppMemory,std::allocator<google_breakpad::AppMemory> >::clear()
PUBLIC 51d0 0 std::_WChar_traits<wchar_t>::copy(wchar_t * const,wchar_t const * const,unsigned int)
PUBLIC 51f0 0 std::_Default_allocator_traits<std::allocator<std::_List_node<google_breakpad::AppMemory,void *> > >::deallocate(std::allocator<std::_List_node<google_breakpad::AppMemory,void *> > &,std::_List_node<google_breakpad::AppMemory,void *> * const,unsigned int)
PUBLIC 5210 0 std::allocator<google_breakpad::ExceptionHandler *>::deallocate(google_breakpad::ExceptionHandler * * const,unsigned int)
PUBLIC 5230 0 std::allocator<std::_List_node<google_breakpad::AppMemory,void *> >::deallocate(std::_List_node<google_breakpad::AppMemory,void *> * const,unsigned int)
PUBLIC 5250 0 std::allocator<wchar_t>::deallocate(wchar_t * const,unsigned int)
PUBLIC 5270 0 std::vector<google_breakpad::ExceptionHandler *,std::allocator<google_breakpad::ExceptionHandler *> >::empty()
PUBLIC 52b0 0 std::list<google_breakpad::AppMemory,std::allocator<google_breakpad::AppMemory> >::end()
PUBLIC 5310 0 std::vector<google_breakpad::ExceptionHandler *,std::allocator<google_breakpad::ExceptionHandler *> >::end()
PUBLIC 5370 0 std::list<google_breakpad::AppMemory,std::allocator<google_breakpad::AppMemory> >::erase(std::_List_const_iterator<std::_List_val<std::_List_simple_types<google_breakpad::AppMemory> > >)
PUBLIC 53c0 0 std::vector<google_breakpad::ExceptionHandler *,std::allocator<google_breakpad::ExceptionHandler *> >::erase(std::_Vector_const_iterator<std::_Vector_val<std::_Simple_types<google_breakpad::ExceptionHandler *> > >)
PUBLIC 5450 0 std::list<google_breakpad::AppMemory,std::allocator<google_breakpad::AppMemory> >::front()
PUBLIC 5470 0 google_breakpad::ExceptionHandler::get_handle_debug_exceptions()
PUBLIC 5490 0 std::_WChar_traits<wchar_t>::length(wchar_t const *)
PUBLIC m 54b0 0 std::numeric_limits<int>::max()
PUBLIC 54c0 0 std::_Default_allocator_traits<std::allocator<google_breakpad::ExceptionHandler *> >::max_size(std::allocator<google_breakpad::ExceptionHandler *> const &)
PUBLIC 54d0 0 std::_Default_allocator_traits<std::allocator<std::_List_node<google_breakpad::AppMemory,void *> > >::max_size(std::allocator<std::_List_node<google_breakpad::AppMemory,void *> > const &)
PUBLIC 54e0 0 std::basic_string<wchar_t,std::char_traits<wchar_t>,std::allocator<wchar_t> >::max_size()
PUBLIC 5540 0 std::list<google_breakpad::AppMemory,std::allocator<google_breakpad::AppMemory> >::max_size()
PUBLIC 5560 0 std::vector<google_breakpad::ExceptionHandler *,std::allocator<google_breakpad::ExceptionHandler *> >::max_size()
PUBLIC 55a0 0 std::_WChar_traits<wchar_t>::move(wchar_t * const,wchar_t const * const,unsigned int)
PUBLIC m 55c0 0 QtPrivate::asString(QString &&)
PUBLIC 55e0 0 std::vector<google_breakpad::ExceptionHandler *,std::allocator<google_breakpad::ExceptionHandler *> >::pop_back()
PUBLIC 5630 0 std::list<google_breakpad::AppMemory,std::allocator<google_breakpad::AppMemory> >::push_back(google_breakpad::AppMemory const &)
PUBLIC 5660 0 std::vector<google_breakpad::ExceptionHandler *,std::allocator<google_breakpad::ExceptionHandler *> >::push_back(google_breakpad::ExceptionHandler * &&)
PUBLIC 5690 0 google_breakpad::scoped_ptr<google_breakpad::CrashGenerationClient>::release()
PUBLIC 56c0 0 google_breakpad::scoped_ptr<google_breakpad::CrashGenerationClient>::reset(google_breakpad::CrashGenerationClient *)
PUBLIC 5710 0 google_breakpad::ExceptionHandler::set_dump_path(std::basic_string<wchar_t,std::char_traits<wchar_t>,std::allocator<wchar_t> > const &)
PUBLIC 5750 0 std::vector<google_breakpad::ExceptionHandler *,std::allocator<google_breakpad::ExceptionHandler *> >::size()
PUBLIC 5780 0 __local_stdio_printf_options
PUBLIC 5790 0 _snwprintf_s
PUBLIC 57d0 0 _vfprintf_l
PUBLIC 5800 0 _vsnwprintf_s_l
PUBLIC 5860 0 _vswprintf_s_l
PUBLIC 58b0 0 fprintf
PUBLIC 58f0 0 swprintf_s
PUBLIC 5930 0 wmemcpy
PUBLIC 5950 0 wmemmove
PUBLIC 5970 0 google_breakpad::CrashGenerationClient::CrashGenerationClient(wchar_t const *,_MINIDUMP_TYPE,google_breakpad::CustomClientInfo const *)
PUBLIC 5a20 0 google_breakpad::CrashGenerationClient::CrashGenerationClient(void *,_MINIDUMP_TYPE,google_breakpad::CustomClientInfo const *)
PUBLIC 5ac0 0 google_breakpad::CrashGenerationClient::~CrashGenerationClient()
PUBLIC 5b20 0 google_breakpad::CrashGenerationClient::Register()
PUBLIC 5b80 0 google_breakpad::CrashGenerationClient::RequestUpload(unsigned long)
PUBLIC 5c20 0 google_breakpad::CrashGenerationClient::RequestDump(_EXCEPTION_POINTERS *,MDRawAssertionInfo *)
PUBLIC 5ca0 0 google_breakpad::CrashGenerationClient::RequestDump(_EXCEPTION_POINTERS *)
PUBLIC 5cc0 0 google_breakpad::CrashGenerationClient::RequestDump(MDRawAssertionInfo *)
PUBLIC 5ce0 0 google_breakpad::CrashGenerationClient::DuplicatePipeToClientProcess(wchar_t const *,void *)
PUBLIC 5da0 0 google_breakpad::CrashGenerationClient::ConnectToServer()
PUBLIC 5e10 0 google_breakpad::CrashGenerationClient::RegisterClient(void *)
PUBLIC 5f00 0 google_breakpad::CrashGenerationClient::ValidateResponse(google_breakpad::ProtocolMessage const &)
PUBLIC 5f50 0 google_breakpad::CrashGenerationClient::IsRegistered()
PUBLIC 5f80 0 google_breakpad::CrashGenerationClient::ConnectToPipe(wchar_t const *,unsigned long,unsigned long)
PUBLIC 6020 0 google_breakpad::CrashGenerationClient::SignalCrashEventAndWait()
PUBLIC 60a0 0 std::basic_string<wchar_t,std::char_traits<wchar_t>,std::allocator<wchar_t> >::basic_string<wchar_t,std::char_traits<wchar_t>,std::allocator<wchar_t> >(wchar_t const * const)
PUBLIC 6110 0 google_breakpad::ProtocolMessage::ProtocolMessage(google_breakpad::MessageTag,unsigned long,_MINIDUMP_TYPE,unsigned long *,_EXCEPTION_POINTERS * *,MDRawAssertionInfo *,google_breakpad::CustomClientInfo const &,void *,void *,void *)
PUBLIC 6190 0 google_breakpad::ProtocolMessage::ProtocolMessage()
PUBLIC 6210 0 google_breakpad::GUIDString::GUIDToWString(_GUID *)
PUBLIC 6320 0 google_breakpad::GUIDString::GUIDToSymbolServerWString(_GUID *)
PUBLIC 6430 0 BreakpadHandler::BreakpadHandler()
PUBLIC 64e0 0 BreakpadHandler::~BreakpadHandler()
PUBLIC 6540 0 BreakpadHandler::GetInstance()
PUBLIC 65f0 0 BreakpadHandler::setUploadUrl(QUrl const &)
PUBLIC 6640 0 BreakpadHandler::uploadUrl()
PUBLIC 6690 0 BreakpadHandler::SetupBreakPad(QString const &)
PUBLIC 6a20 0 BreakpadHandler::GetBreakPadDumpPath()
PUBLIC 6a60 0 BreakpadHandler::GetDumpFileList()
PUBLIC 6ba0 0 BreakpadHandler::UploadDumpsFiles(QStringList)
PUBLIC 6db0 0 BreakpadHandler::IsHadCrashedDumpFiles()
PUBLIC 6e40 0 BreakpadHandler::DeleteAllOfTheDumpFiles()
PUBLIC 6fb0 0 BreakpadHandler::CallOnCrash(bool,QString,QString)
PUBLIC 7040 0 DumpCallback(wchar_t const *,wchar_t const *,void *,_EXCEPTION_POINTERS *,MDRawAssertionInfo *,bool)
PUBLIC 7220 0 QAtomicOps<int>::deref<int>(std::atomic<int> &)
PUBLIC 7250 0 QAtomicOps<int>::load<int>(std::atomic<int> const &)
PUBLIC 7260 0 QtPrivate::qMakeForeachContainer<QStringList &>(QStringList &)
PUBLIC 7290 0 QAtomicOps<int>::ref<int>(std::atomic<int> &)
PUBLIC 72c0 0 QtPrivate::QForeachContainer<QStringList>::QForeachContainer<QStringList>(QStringList const &)
PUBLIC 7320 0 QList<QString>::QList<QString>(QList<QString> const &)
PUBLIC 7400 0 QList<QString>::QList<QString>()
PUBLIC 7420 0 BreakpadHandlerPrivate::BreakpadHandlerPrivate()
PUBLIC 7480 0 QLatin1String::QLatin1String(char const *)
PUBLIC 74d0 0 QStringList::QStringList(QStringList const &)
PUBLIC 74f0 0 QStringList::QStringList()
PUBLIC 7510 0 QtPrivate::QForeachContainer<QStringList>::~QForeachContainer<QStringList>()
PUBLIC 7530 0 QList<QString>::~QList<QString>()
PUBLIC 7590 0 BreakpadHandlerPrivate::~BreakpadHandlerPrivate()
PUBLIC 75c0 0 QStringList::~QStringList()
PUBLIC 75e0 0 QStringList::operator<<(QString const &)
PUBLIC 7600 0 QList<QString>::const_iterator::operator!=(QList<QString>::const_iterator const &)
PUBLIC 7630 0 QList<QString>::const_iterator::operator*()
PUBLIC 7650 0 std::_Atomic_int::operator++()
PUBLIC 7670 0 std::_Atomic_int::operator--()
PUBLIC 7690 0 operator+(QString const &,QString const &)
PUBLIC 7720 0 operator+(QString const &,char const *)
PUBLIC m 77e0 0 BreakpadHandler::`vector deleting destructor'(unsigned int)
PUBLIC 7810 0 BreakpadHandlerPrivate::`scalar deleting destructor'(unsigned int)
PUBLIC 7840 0 QString::`scalar deleting destructor'(unsigned int)
PUBLIC 7870 0 std::_Atomic_fetch_add_4(unsigned long volatile *,unsigned long,std::memory_order)
PUBLIC 78f0 0 std::_Atomic_fetch_sub_4(unsigned long volatile *,unsigned long,std::memory_order)
PUBLIC 7910 0 std::_Atomic_load_4(unsigned long volatile *,std::memory_order)
PUBLIC m 7980 0 std::_Fetch_add_acquire_4(unsigned long volatile *,unsigned long)
PUBLIC 7990 0 std::_Load_acquire_4(unsigned long volatile *)
PUBLIC m 79b0 0 std::_Load_relaxed_4(unsigned long volatile *)
PUBLIC 79d0 0 QList<QString>::append(QString const &)
PUBLIC 7b50 0 std::atomic_fetch_add(std::_Atomic_int *,int)
PUBLIC 7b70 0 std::atomic_fetch_add_explicit(std::_Atomic_int *,int,std::memory_order)
PUBLIC 7bc0 0 std::atomic_fetch_sub(std::_Atomic_int *,int)
PUBLIC 7be0 0 std::atomic_fetch_sub_explicit(std::_Atomic_int *,int,std::memory_order)
PUBLIC 7c30 0 std::atomic_load_explicit(std::_Atomic_int const *,std::memory_order)
PUBLIC 7c80 0 QList<QString>::begin()
PUBLIC 7cb0 0 QList<QString>::count()
PUBLIC 7cd0 0 QList<QString>::dealloc(QListData::Data *)
PUBLIC 7d10 0 QBasicAtomicInteger<int>::deref()
PUBLIC 7d30 0 QtPrivate::RefCount::deref()
PUBLIC 7d70 0 QList<QString>::detach_helper_grow(int,int)
PUBLIC 7ef0 0 QList<QString>::end()
PUBLIC 7f20 0 QtPrivate::RefCount::isShared()
PUBLIC 7f60 0 QBasicAtomicInteger<int>::load()
PUBLIC 7f80 0 std::_Atomic_int::load(std::memory_order)
PUBLIC 7fa0 0 QList<QString>::node_construct(QList<QString>::Node *,QString const &)
PUBLIC 8030 0 QList<QString>::node_copy(QList<QString>::Node *,QList<QString>::Node *,QList<QString>::Node *)
PUBLIC 8220 0 QList<QString>::node_destruct(QList<QString>::Node *,QList<QString>::Node *)
PUBLIC 82a0 0 QList<QString>::node_destruct(QList<QString>::Node *)
PUBLIC 8300 0 QBasicAtomicInteger<int>::ref()
PUBLIC 8350 0 QtPrivate::RefCount::ref()
PUBLIC 8390 0 QList<QString>::Node::t()
PUBLIC 83d0 0 QBreakpadHttpUploader::QBreakpadHttpUploader(QObject *)
PUBLIC 8490 0 QBreakpadHttpUploader::QBreakpadHttpUploader(QUrl const &,QObject *)
PUBLIC 8560 0 QBreakpadHttpUploader::~QBreakpadHttpUploader()
PUBLIC 8640 0 QBreakpadHttpUploader::remoteUrl()
PUBLIC 86e0 0 QBreakpadHttpUploader::setUrl(QUrl const &)
PUBLIC 8700 0 QBreakpadHttpUploader::uploadDump(QString const &)
PUBLIC 8d80 0 QBreakpadHttpUploader::onUploadProgress(__int64,__int64)
PUBLIC 8dc0 0 QBreakpadHttpUploader::onError(QNetworkReply::NetworkError)
PUBLIC 8e10 0 QBreakpadHttpUploader::onUploadFinished()
PUBLIC 9120 0 QWeakPointer<QObject>::QWeakPointer<QObject><QObject>(QObject *,bool)
PUBLIC 9170 0 operator<<<QNetworkReply::NetworkError>(QDebug,QNetworkReply::NetworkError)
PUBLIC 9210 0 QWeakPointer<QObject>::assign<QObject>(QObject *)
PUBLIC m 9250 0 qSwap<QtSharedPointer::ExternalRefCountData *>(QtSharedPointer::ExternalRefCountData * &,QtSharedPointer::ExternalRefCountData * &)
PUBLIC m 9270 0 std::swap<QtSharedPointer::ExternalRefCountData *,void>(QtSharedPointer::ExternalRefCountData * &,QtSharedPointer::ExternalRefCountData * &)
PUBLIC 92b0 0 QPointer<QNetworkReply>::QPointer<QNetworkReply>()
PUBLIC 92d0 0 QWeakPointer<QObject>::QWeakPointer<QObject>(QWeakPointer<QObject> &&)
PUBLIC 9310 0 QPointer<QNetworkReply>::~QPointer<QNetworkReply>()
PUBLIC 9330 0 QWeakPointer<QObject>::~QWeakPointer<QObject>()
PUBLIC 9380 0 QtSharedPointer::ExternalRefCountData::operator delete(void *)
PUBLIC 93a0 0 QPointer<QNetworkReply>::operator=(QNetworkReply *)
PUBLIC 93c0 0 QWeakPointer<QObject>::operator=(QWeakPointer<QObject> &&)
PUBLIC m 9410 0 QPointer<QNetworkReply>::operator QNetworkReply *()
PUBLIC 9430 0 operator+(QByteArray const &,QByteArray const &)
PUBLIC 94c0 0 operator+(QByteArray const &,char const *)
PUBLIC 9550 0 operator+(char const *,QString const &)
PUBLIC 95e0 0 QtSharedPointer::ExternalRefCountData::`scalar deleting destructor'(unsigned int)
PUBLIC m 9630 0 QBreakpadHttpUploader::`vector deleting destructor'(unsigned int)
PUBLIC m 9660 0 QFile::`vector deleting destructor'(unsigned int)
PUBLIC m 9690 0 QHttpMultiPart::`vector deleting destructor'(unsigned int)
PUBLIC 96c0 0 QPointer<QNetworkReply>::data()
PUBLIC 96e0 0 QWeakPointer<QObject>::data()
PUBLIC 9720 0 qt_getEnumMetaObject(QNetworkReply::NetworkError)
PUBLIC 9730 0 qt_getEnumName(QNetworkReply::NetworkError)
PUBLIC 9740 0 QWeakPointer<QObject>::swap(QWeakPointer<QObject> &)
PUBLIC 9780 0 ShowDir(QString)
PUBLIC 98b0 0 main
PUBLIC 9de0 0 QLatin1Char::QLatin1Char(char)
PUBLIC 9e00 0 CrashReportDialog::CrashReportDialog(QWidget *)
PUBLIC 9ef0 0 CrashReportDialog::~CrashReportDialog()
PUBLIC 9f30 0 CrashReportDialog::on_pushButtonOk_clicked()
PUBLIC 9f50 0 QFlags<Qt::WindowType>::QFlags<Qt::WindowType>(int QFlags<Qt::WindowType>::Private::*)
PUBLIC m 9f70 0 QFlags<QMetaType::TypeFlag>::QFlags<QMetaType::TypeFlag>(QFlag)
PUBLIC 9f90 0 QFlags<Qt::WindowType>::operator&(int)
PUBLIC 9fbe 0 [thunk]:CrashReportDialog::`vector deleting destructor'`adjustor{8}' (unsigned int)
PUBLIC 9fc6 0 [thunk]:QLabel::`vector deleting destructor'`adjustor{8}' (unsigned int)
PUBLIC 9fce 0 [thunk]:QPushButton::`vector deleting destructor'`adjustor{8}' (unsigned int)
PUBLIC m 9fe0 0 CrashReportDialog::`vector deleting destructor'(unsigned int)
PUBLIC m a010 0 QLabel::`vector deleting destructor'(unsigned int)
PUBLIC m a040 0 QPushButton::`vector deleting destructor'(unsigned int)
PUBLIC a070 0 Ui_CrashReportDialog::retranslateUi(QDialog *)
PUBLIC a1e0 0 Ui_CrashReportDialog::setupUi(QDialog *)
PUBLIC a650 0 DemoDialog::DemoDialog(QWidget *)
PUBLIC a720 0 DemoDialog::~DemoDialog()
PUBLIC a760 0 DemoDialog::on_crashButton_clicked()
PUBLIC a770 0 crash()
PUBLIC a788 0 [thunk]:DemoDialog::`vector deleting destructor'`adjustor{8}' (unsigned int)
PUBLIC a790 0 [thunk]:QHBoxLayout::`vector deleting destructor'`adjustor{8}' (unsigned int)
PUBLIC a798 0 [thunk]:QWidget::`vector deleting destructor'`adjustor{8}' (unsigned int)
PUBLIC m a7a0 0 DemoDialog::`vector deleting destructor'(unsigned int)
PUBLIC m a7d0 0 QHBoxLayout::`vector deleting destructor'(unsigned int)
PUBLIC m a800 0 QWidget::`vector deleting destructor'(unsigned int)
PUBLIC a830 0 Ui_DemoDialog::retranslateUi(QDialog *)
PUBLIC a900 0 Ui_DemoDialog::setupUi(QDialog *)
PUBLIC ac60 0 BreakpadHandler::metaObject()
PUBLIC aca0 0 BreakpadHandler::qt_metacast(char const *)
PUBLIC ace0 0 BreakpadHandler::qt_metacall(QMetaObject::Call,int,void * *)
PUBLIC ad70 0 BreakpadHandler::qt_static_metacall(QObject *,QMetaObject::Call,int,void * *)
PUBLIC ae20 0 BreakpadHandler::onCrash(bool,QString,QString)
PUBLIC aec0 0 QBreakpadHttpUploader::metaObject()
PUBLIC af00 0 QBreakpadHttpUploader::qt_metacast(char const *)
PUBLIC af40 0 QBreakpadHttpUploader::qt_metacall(QMetaObject::Call,int,void * *)
PUBLIC afd0 0 QBreakpadHttpUploader::qt_static_metacall(QObject *,QMetaObject::Call,int,void * *)
PUBLIC b160 0 QBreakpadHttpUploader::finished(QString)
PUBLIC b1e0 0 QAtomicOps<int>::loadAcquire<int>(std::atomic<int> const &)
PUBLIC m b1f0 0 qMetaTypeId<QNetworkReply::NetworkError>()
PUBLIC b200 0 qRegisterMetaType<QNetworkReply::NetworkError>(char const *,QNetworkReply::NetworkError *,QtPrivate::MetaTypeDefinedHelper<QNetworkReply::NetworkError,1>::DefinedType)
PUBLIC b280 0 qRegisterMetaType<QNetworkReply::NetworkError>()
PUBLIC b290 0 qRegisterNormalizedMetaType<QNetworkReply::NetworkError>(QByteArray const &,QNetworkReply::NetworkError *,QtPrivate::MetaTypeDefinedHelper<QNetworkReply::NetworkError,1>::DefinedType)
PUBLIC b360 0 QAtomicOps<int>::storeRelease<int>(std::atomic<int> &,int)
PUBLIC b380 0 QBasicAtomicInteger<int>::QBasicAtomicInteger<int>(int)
PUBLIC b3a0 0 QFlags<QMetaType::TypeFlag>::operator|=(QMetaType::TypeFlag)
PUBLIC b3c0 0 QtMetaTypePrivate::QMetaTypeFunctionHelper<QNetworkReply::NetworkError,1>::Construct(void *,void const *)
PUBLIC b410 0 std::_Atomic_store_4(unsigned long volatile *,unsigned long,std::memory_order)
PUBLIC b470 0 std::_Store_seq_cst_4(unsigned long volatile *,unsigned long)
PUBLIC b480 0 std::atomic_store_explicit(std::_Atomic_int *,int,std::memory_order)
PUBLIC b4d0 0 QBasicAtomicInteger<int>::loadAcquire()
PUBLIC b4f0 0 QMetaTypeId2<QNetworkReply::NetworkError>::qt_metatype_id()
PUBLIC b500 0 QMetaTypeId<QNetworkReply::NetworkError>::qt_metatype_id()
PUBLIC m b5a0 0 QtPrivate::AssociativeContainerConverterHelper<QNetworkReply::NetworkError,0>::registerConverter(int)
PUBLIC b5b0 0 std::_Atomic_int::store(int,std::memory_order)
PUBLIC b5e0 0 QBasicAtomicInteger<int>::storeRelease(int)
PUBLIC b600 0 QtPrivate::MetaObjectForType<QNetworkReply::NetworkError,void>::value()
PUBLIC b610 0 CrashReportDialog::metaObject()
PUBLIC b650 0 CrashReportDialog::qt_metacast(char const *)
PUBLIC b690 0 CrashReportDialog::qt_metacall(QMetaObject::Call,int,void * *)
PUBLIC b720 0 CrashReportDialog::qt_static_metacall(QObject *,QMetaObject::Call,int,void * *)
PUBLIC b750 0 DemoDialog::metaObject()
PUBLIC b790 0 DemoDialog::qt_metacast(char const *)
PUBLIC b7d0 0 DemoDialog::qt_metacall(QMetaObject::Call,int,void * *)
PUBLIC b860 0 DemoDialog::qt_static_metacall(QObject *,QMetaObject::Call,int,void * *)
PUBLIC b88c 0 QDialog::accept()
PUBLIC b892 0 QWidget::actionEvent(QActionEvent *)
PUBLIC b898 0 QAbstractButton::changeEvent(QEvent *)
PUBLIC b89e 0 QLabel::changeEvent(QEvent *)
PUBLIC b8a4 0 QWidget::changeEvent(QEvent *)
PUBLIC b8aa 0 QAbstractButton::checkStateSet()
PUBLIC b8b0 0 QDialog::closeEvent(QCloseEvent *)
PUBLIC b8b6 0 QWidget::closeEvent(QCloseEvent *)
PUBLIC b8bc 0 QDialog::contextMenuEvent(QContextMenuEvent *)
PUBLIC b8c2 0 QLabel::contextMenuEvent(QContextMenuEvent *)
PUBLIC b8c8 0 QWidget::contextMenuEvent(QContextMenuEvent *)
PUBLIC b8ce 0 QWidget::devType()
PUBLIC b8d4 0 QDialog::done(int)
PUBLIC b8da 0 QWidget::dragEnterEvent(QDragEnterEvent *)
PUBLIC b8e0 0 QWidget::dragLeaveEvent(QDragLeaveEvent *)
PUBLIC b8e6 0 QWidget::dragMoveEvent(QDragMoveEvent *)
PUBLIC b8ec 0 QWidget::dropEvent(QDropEvent *)
PUBLIC b8f2 0 QWidget::enterEvent(QEvent *)
PUBLIC b8f8 0 QLabel::event(QEvent *)
PUBLIC b8fe 0 QPushButton::event(QEvent *)
PUBLIC b904 0 QWidget::event(QEvent *)
PUBLIC b90a 0 QDialog::eventFilter(QObject *,QEvent *)
PUBLIC b910 0 QDialog::exec()
PUBLIC b916 0 QLabel::focusInEvent(QFocusEvent *)
PUBLIC b91c 0 QPushButton::focusInEvent(QFocusEvent *)
PUBLIC b922 0 QWidget::focusInEvent(QFocusEvent *)
PUBLIC b928 0 QLabel::focusNextPrevChild(bool)
PUBLIC b92e 0 QWidget::focusNextPrevChild(bool)
PUBLIC b934 0 QLabel::focusOutEvent(QFocusEvent *)
PUBLIC b93a 0 QPushButton::focusOutEvent(QFocusEvent *)
PUBLIC b940 0 QWidget::focusOutEvent(QFocusEvent *)
PUBLIC b946 0 QWidget::hasHeightForWidth()
PUBLIC b94c 0 QLabel::heightForWidth(int)
PUBLIC b952 0 QWidget::heightForWidth(int)
PUBLIC b958 0 QWidget::hideEvent(QHideEvent *)
PUBLIC b95e 0 QAbstractButton::hitButton(QPoint const &)
PUBLIC b964 0 QWidget::initPainter(QPainter *)
PUBLIC b96a 0 QWidget::inputMethodEvent(QInputMethodEvent *)
PUBLIC b970 0 QWidget::inputMethodQuery(Qt::InputMethodQuery)
PUBLIC b976 0 QDialog::keyPressEvent(QKeyEvent *)
PUBLIC b97c 0 QLabel::keyPressEvent(QKeyEvent *)
PUBLIC b982 0 QPushButton::keyPressEvent(QKeyEvent *)
PUBLIC b988 0 QAbstractButton::keyReleaseEvent(QKeyEvent *)
PUBLIC b98e 0 QWidget::keyReleaseEvent(QKeyEvent *)
PUBLIC b994 0 QWidget::leaveEvent(QEvent *)
PUBLIC b99a 0 QLabel::metaObject()
PUBLIC b9a0 0 QPushButton::metaObject()
PUBLIC b9a6 0 QWidget::metric(QPaintDevice::PaintDeviceMetric)
PUBLIC b9ac 0 QDialog::minimumSizeHint()
PUBLIC b9b2 0 QLabel::minimumSizeHint()
PUBLIC b9b8 0 QPushButton::minimumSizeHint()
PUBLIC b9be 0 QWidget::mouseDoubleClickEvent(QMouseEvent *)
PUBLIC b9c4 0 QAbstractButton::mouseMoveEvent(QMouseEvent *)
PUBLIC b9ca 0 QLabel::mouseMoveEvent(QMouseEvent *)
PUBLIC b9d0 0 QWidget::mouseMoveEvent(QMouseEvent *)
PUBLIC b9d6 0 QAbstractButton::mousePressEvent(QMouseEvent *)
PUBLIC b9dc 0 QLabel::mousePressEvent(QMouseEvent *)
PUBLIC b9e2 0 QWidget::mousePressEvent(QMouseEvent *)
PUBLIC b9e8 0 QAbstractButton::mouseReleaseEvent(QMouseEvent *)
PUBLIC b9ee 0 QLabel::mouseReleaseEvent(QMouseEvent *)
PUBLIC b9f4 0 QWidget::mouseReleaseEvent(QMouseEvent *)
PUBLIC b9fa 0 QWidget::moveEvent(QMoveEvent *)
PUBLIC ba00 0 QWidget::nativeEvent(QByteArray const &,void *,long *)
PUBLIC ba06 0 QAbstractButton::nextCheckState()
PUBLIC ba0c 0 QDialog::open()
PUBLIC ba12 0 QWidget::paintEngine()
PUBLIC ba18 0 QLabel::paintEvent(QPaintEvent *)
PUBLIC ba1e 0 QPushButton::paintEvent(QPaintEvent *)
PUBLIC ba24 0 QWidget::paintEvent(QPaintEvent *)
PUBLIC ba2a 0 QLabel::qt_metacall(QMetaObject::Call,int,void * *)
PUBLIC ba30 0 QPushButton::qt_metacall(QMetaObject::Call,int,void * *)
PUBLIC ba36 0 QLabel::qt_metacast(char const *)
PUBLIC ba3c 0 QPushButton::qt_metacast(char const *)
PUBLIC ba42 0 QWidget::redirected(QPoint *)
PUBLIC ba48 0 QDialog::reject()
PUBLIC ba4e 0 QDialog::resizeEvent(QResizeEvent *)
PUBLIC ba54 0 QWidget::resizeEvent(QResizeEvent *)
PUBLIC ba5a 0 QDialog::setVisible(bool)
PUBLIC ba60 0 QWidget::setVisible(bool)
PUBLIC ba66 0 QWidget::sharedPainter()
PUBLIC ba6c 0 QDialog::showEvent(QShowEvent *)
PUBLIC ba72 0 QWidget::showEvent(QShowEvent *)
PUBLIC ba78 0 QDialog::sizeHint()
PUBLIC ba7e 0 QLabel::sizeHint()
PUBLIC ba84 0 QPushButton::sizeHint()
PUBLIC ba8a 0 QWidget::tabletEvent(QTabletEvent *)
PUBLIC ba90 0 QAbstractButton::timerEvent(QTimerEvent *)
PUBLIC ba96 0 QWidget::wheelEvent(QWheelEvent *)
PUBLIC ba9c 0 QBoxLayout::addItem(QLayoutItem *)
PUBLIC baa2 0 QLayout::childEvent(QChildEvent *)
PUBLIC baa8 0 QLayout::controlTypes()
PUBLIC baae 0 QBoxLayout::count()
PUBLIC bab4 0 QBoxLayout::expandingDirections()
PUBLIC baba 0 QLayout::geometry()
PUBLIC bac0 0 QBoxLayout::hasHeightForWidth()
PUBLIC bac6 0 QBoxLayout::heightForWidth(int)
PUBLIC bacc 0 QLayout::indexOf(QWidget *)
PUBLIC bad2 0 QBoxLayout::invalidate()
PUBLIC bad8 0 QLayout::isEmpty()
PUBLIC bade 0 QBoxLayout::itemAt(int)
PUBLIC bae4 0 QWidget::keyPressEvent(QKeyEvent *)
PUBLIC baea 0 QLayout::layout()
PUBLIC baf0 0 QBoxLayout::maximumSize()
PUBLIC baf6 0 QHBoxLayout::metaObject()
PUBLIC bafc 0 QWidget::metaObject()
PUBLIC bb02 0 QBoxLayout::minimumHeightForWidth(int)
PUBLIC bb08 0 QBoxLayout::minimumSize()
PUBLIC bb0e 0 QWidget::minimumSizeHint()
PUBLIC bb14 0 QHBoxLayout::qt_metacall(QMetaObject::Call,int,void * *)
PUBLIC bb1a 0 QWidget::qt_metacall(QMetaObject::Call,int,void * *)
PUBLIC bb20 0 QHBoxLayout::qt_metacast(char const *)
PUBLIC bb26 0 QWidget::qt_metacast(char const *)
PUBLIC bb2c 0 QBoxLayout::setGeometry(QRect const &)
PUBLIC bb32 0 QBoxLayout::sizeHint()
PUBLIC bb38 0 QWidget::sizeHint()
PUBLIC bb3e 0 QLayoutItem::spacerItem()
PUBLIC bb44 0 QBoxLayout::takeAt(int)
PUBLIC bb4a 0 QLayoutItem::widget()
PUBLIC bb50 0 QHttpMultiPart::metaObject()
PUBLIC bb56 0 QHttpMultiPart::qt_metacall(QMetaObject::Call,int,void * *)
PUBLIC bb5c 0 QHttpMultiPart::qt_metacast(char const *)
PUBLIC bb62 0 QObject::childEvent(QChildEvent *)
PUBLIC bb68 0 QObject::connectNotify(QMetaMethod const &)
PUBLIC bb6e 0 QObject::customEvent(QEvent *)
PUBLIC bb74 0 QObject::disconnectNotify(QMetaMethod const &)
PUBLIC bb7a 0 QObject::event(QEvent *)
PUBLIC bb80 0 QObject::eventFilter(QObject *,QEvent *)
PUBLIC bb86 0 QObject::timerEvent(QTimerEvent *)
PUBLIC bb8c 0 QFileDevice::atEnd()
PUBLIC bb92 0 QIODevice::bytesAvailable()
PUBLIC bb98 0 QIODevice::bytesToWrite()
PUBLIC bb9e 0 QIODevice::canReadLine()
PUBLIC bba4 0 QFileDevice::close()
PUBLIC bbaa 0 QFile::fileName()
PUBLIC bbb0 0 QFileDevice::isSequential()
PUBLIC bbb6 0 QFile::metaObject()
PUBLIC bbbc 0 QFile::open(QFlags<QIODevice::OpenModeFlag>)
PUBLIC bbc2 0 QFile::permissions()
PUBLIC bbc8 0 QFileDevice::pos()
PUBLIC bbce 0 QFile::qt_metacall(QMetaObject::Call,int,void * *)
PUBLIC bbd4 0 QFile::qt_metacast(char const *)
PUBLIC bbda 0 QFileDevice::readData(char *,__int64)
PUBLIC bbe0 0 QFileDevice::readLineData(char *,__int64)
PUBLIC bbe6 0 QIODevice::reset()
PUBLIC bbec 0 QFile::resize(__int64)
PUBLIC bbf2 0 QFileDevice::seek(__int64)
PUBLIC bbf8 0 QFile::setPermissions(QFlags<QFileDevice::Permission>)
PUBLIC bbfe 0 QFile::size()
PUBLIC bc04 0 QIODevice::waitForBytesWritten(int)
PUBLIC bc0a 0 QIODevice::waitForReadyRead(int)
PUBLIC bc10 0 QFileDevice::writeData(char const *,__int64)
PUBLIC bc16 0 std::_Xlength_error(char const *)
PUBLIC bc1c 0 std::_Xout_of_range(char const *)
FUNC bc22 30 0 operator new(unsigned int)
FUNC bc52 e 0 operator delete(void *,unsigned int)
FUNC bc60 28 0 __raise_securityfailure
FUNC bc88 f9 0 __report_gsfailure
FUNC bd81 c 0 __report_rangecheckfailure
FUNC bd8d ce 0 __report_securityfailure
FUNC be5b 11 0 __security_check_cookie
FUNC be6c 44 0 find_pe_section
FUNC beb0 32 0 __scrt_acquire_startup_lock
FUNC bee2 39 0 __scrt_initialize_crt
FUNC bf1b a5 0 __scrt_initialize_onexit_tables
FUNC bfc0 94 0 __scrt_is_nonwritable_in_current_image
FUNC c054 1d 0 __scrt_release_startup_lock
FUNC c071 28 0 __scrt_uninitialize_crt
FUNC c099 3b 0 _onexit
FUNC c0d4 15 0 atexit
FUNC c0e9 23 0 type_info::`scalar deleting destructor'(unsigned int)
FUNC c10c 5 0 operator delete(void *)
FUNC c111 27 0 __scrt_initialize_thread_safe_statics
FUNC m c138 1d 0 __crt_fast_encode_pointer<int (*)(_RTL_CONDITION_VARIABLE *,_RTL_CRITICAL_SECTION *,unsigned long)>(int (*const)(_RTL_CONDITION_VARIABLE *,_RTL_CRITICAL_SECTION *,unsigned long))
FUNC c155 ef 0 __scrt_initialize_thread_safe_statics_platform_specific
FUNC c244 1c 0 __scrt_uninitialize_thread_safe_statics
FUNC c260 4a 0 _Init_thread_footer
FUNC c2aa 52 0 _Init_thread_header
FUNC c2fc 42 0 _Init_thread_notify
FUNC c33e 60 0 _Init_thread_wait
FUNC c39e ab 0 pre_c_initialization
FUNC c449 8 0 post_pgo_initialization
FUNC c451 12 0 pre_cpp_initialization
FUNC c463 17c 0 __scrt_common_main_seh
FUNC c5df a 0 WinMainCRTStartup
FUNC c5e9 1b 0 std::bad_alloc::bad_alloc(std::bad_alloc const &)
FUNC c604 18 0 std::bad_alloc::bad_alloc()
FUNC c61c 1b 0 std::bad_array_new_length::bad_array_new_length(std::bad_array_new_length const &)
FUNC c637 18 0 std::bad_array_new_length::bad_array_new_length()
FUNC c64f 2c 0 std::exception::exception(std::exception const &)
FUNC m c67b 11 0 std::bad_alloc::~bad_alloc()
FUNC m c68c 2d 0 std::bad_alloc::`scalar deleting destructor'(unsigned int)
FUNC c6b9 1d 0 __scrt_throw_std_bad_alloc()
FUNC c6d6 1d 0 __scrt_throw_std_bad_array_new_length()
FUNC c6f3 d 0 std::exception::what()
FUNC c700 197 0 __isa_available_init
FUNC c897 4 0 _get_startup_argv_mode
FUNC c89b c 0 __scrt_is_ucrt_dll_in_use
FUNC c8a7 11a 0 __scrt_fastfail
FUNC c9c1 31 0 __scrt_get_show_window_mode
FUNC c9f2 5 0 __scrt_initialize_mta
FUNC m c9f7 3 0 __scrt_initialize_winrt
FUNC c9fa 43 0 __scrt_is_managed_app
FUNC ca3d c 0 __scrt_set_unhandled_exception_filter
FUNC ca49 41 4 __scrt_unhandled_exception_filter
FUNC ca8a 8 4 _crt_debugger_hook
FUNC caa0 46 0 _SEH_prolog4
FUNC cae6 15 0 _SEH_epilog4
FUNC cafb 23 0 _except_handler4
FUNC m cb1e 1 0 _guard_check_icall_nop
FUNC cb1f 4d 0 __get_entropy
FUNC cb6c 4b 0 __security_init_cookie
FUNC cbb7 6 0 _get_startup_file_mode
FUNC cbbd c 0 __scrt_initialize_type_info()
FUNC m cbc9 3 0 __scrt_stub_for_acrt_initialize
FUNC cbcc 21 0 _initialize_default_precision
FUNC cbed 6 0 __local_stdio_scanf_options
FUNC cbf3 1d 0 __scrt_initialize_default_local_stdio_options
FUNC cc10 c 0 __scrt_is_user_matherr_present
FUNC cc1c 6 0 __scrt_get_dyn_tls_init_callback
FUNC cc22 6 0 __scrt_get_dyn_tls_dtor_callback
FUNC cc28 2c 0 _RTC_Initialize
FUNC cc54 2c 0 _RTC_Terminate
PUBLIC cc80 4 IsProcessorFeaturePresent
PUBLIC cc86 0 memcpy
PUBLIC cc8c 0 memmove
PUBLIC cc92 0 memset
PUBLIC cc98 0 _set_purecall_handler
PUBLIC cc9e 8 _CxxThrowException
PUBLIC cca4 0 __CxxFrameHandler3
PUBLIC ccaa 0 __std_exception_copy
PUBLIC ccb0 0 __std_exception_destroy
PUBLIC ccb6 0 _except_handler4_common
PUBLIC ccbc 0 exit
PUBLIC ccc2 0 strlen
PUBLIC ccc8 0 strcmp
PUBLIC ccce 0 _callnewh
PUBLIC ccd4 0 malloc
PUBLIC ccda 0 _configure_narrow_argv
PUBLIC cce0 0 _initialize_narrow_environment
PUBLIC cce6 0 _initialize_onexit_table
PUBLIC ccec 0 _register_onexit_function
PUBLIC ccf2 0 _crt_atexit
PUBLIC ccf8 0 _cexit
PUBLIC ccfe 0 free
PUBLIC cd04 0 _seh_filter_exe
PUBLIC cd0a 0 _set_app_type
PUBLIC cd10 0 __setusermatherr
PUBLIC cd16 0 _get_narrow_winmain_command_line
PUBLIC cd1c 0 _initterm
PUBLIC cd22 0 _initterm_e
PUBLIC cd28 0 _exit
PUBLIC cd2e 0 _set_fmode
PUBLIC cd34 0 _c_exit
PUBLIC cd3a 0 _register_thread_local_exe_atexit_callback
PUBLIC cd40 0 _configthreadlocale
PUBLIC cd46 0 _set_new_mode
PUBLIC cd4c 0 __p__commode
PUBLIC cd52 0 terminate
PUBLIC cd58 0 _controlfp_s
PUBLIC cd60 10 WinMain
FUNC ce7f 9 0 operator new[](unsigned int)
FUNC ce88 5 0 operator delete[](void *)
STACK WIN 4 bc22 30 3 0 4 0 0 0 1 $T0 $ebp = $eip $T0 4 + ^ = $ebp $T0 ^ = $esp $T0 8 + = 
STACK WIN 4 bc52 e 3 0 8 0 0 0 1 $T0 $ebp = $eip $T0 4 + ^ = $ebp $T0 ^ = $esp $T0 8 + = 
STACK WIN 4 bc60 28 3 0 4 0 0 0 1 $T0 $ebp = $eip $T0 4 + ^ = $ebp $T0 ^ = $esp $T0 8 + = 
STACK WIN 4 bc88 f9 9 0 0 0 324 0 1 $T0 $ebp = $eip $T0 4 + ^ = $ebp $T0 ^ = $esp $T0 8 + = 
STACK WIN 4 bd81 c 3 0 0 0 0 0 1 $T0 $ebp = $eip $T0 4 + ^ = $ebp $T0 ^ = $esp $T0 8 + = 
STACK WIN 4 bd8d ce 9 0 4 0 31c 0 1 $T0 $ebp = $eip $T0 4 + ^ = $ebp $T0 ^ = $esp $T0 8 + = 
STACK WIN 4 be5b 11 0 0 0 0 0 0 1 $T0 .raSearch = $eip $T0 ^ = $esp $T0 4 + = 
STACK WIN 4 be6c 44 7 0 8 0 0 0 1 $T0 $ebp = $eip $T0 4 + ^ = $ebp $T0 ^ = $esp $T0 8 + = 
STACK WIN 4 be73 37 0 0 8 4 0 0 1 $T0 $ebp = $eip $T0 4 + ^ = $ebp $T0 ^ = $esp $T0 8 + =  $23 $T0 4 - ^ = 
STACK WIN 4 beb0 32 1 0 0 0 0 0 1 $T0 .raSearch = $eip $T0 ^ = $esp $T0 4 + = 
STACK WIN 4 beb1 30 0 0 0 4 0 0 1 $T0 .raSearch = $eip $T0 ^ = $esp $T0 4 + =  $23 $T0 4 - ^ = 
STACK WIN 4 bee2 39 3 0 4 0 0 0 1 $T0 $ebp = $eip $T0 4 + ^ = $ebp $T0 ^ = $esp $T0 8 + = 
STACK WIN 4 bf1b a5 6 0 4 0 c 0 1 $T0 $ebp = $eip $T0 4 + ^ = $ebp $T0 ^ = $esp $T0 8 + = 
STACK WIN 4 bf2f 87 0 0 4 4 c 0 1 $T0 $ebp = $eip $T0 4 + ^ = $ebp $T0 ^ = $esp $T0 8 + =  $23 $T0 16 - ^ = 
STACK WIN 4 bf73 39 0 0 4 8 c 0 1 $T0 $ebp = $eip $T0 4 + ^ = $ebp $T0 ^ = $esp $T0 8 + =  $23 $T0 16 - ^ =  $24 $T0 20 - ^ = 
STACK WIN 4 bfc0 94 c 0 4 10 18 0 1 $T0 $ebp = $eip $T0 4 + ^ = $ebp $T0 ^ = $esp $T0 8 + =  $20 $T0 28 - ^ =  $23 $T0 32 - ^ =  $24 $T0 36 - ^ = 
STACK WIN 4 c025 13 0 0 4 10 18 0 1 $T0 $ebp = $T2 $esp = $T1 .raSearchStart = $eip $T1 ^ = $ebp $T0 = $esp $T1 4 + = 
STACK WIN 4 c054 1d 3 0 4 0 0 0 1 $T0 $ebp = $eip $T0 4 + ^ = $ebp $T0 ^ = $esp $T0 8 + = 
STACK WIN 4 c071 28 3 0 8 0 0 0 1 $T0 $ebp = $eip $T0 4 + ^ = $ebp $T0 ^ = $esp $T0 8 + = 
STACK WIN 4 c099 3b 3 0 4 0 0 0 1 $T0 $ebp = $eip $T0 4 + ^ = $ebp $T0 ^ = $esp $T0 8 + = 
STACK WIN 4 c0d4 15 3 0 4 0 0 0 1 $T0 $ebp = $eip $T0 4 + ^ = $ebp $T0 ^ = $esp $T0 8 + = 
STACK WIN 4 c0e9 23 a 0 4 0 0 0 1 $T0 $ebp = $eip $T0 4 + ^ = $ebp $T0 ^ = $esp $T0 8 + = 
STACK WIN 4 c0f1 17 2 0 4 4 0 0 1 $T0 $ebp = $eip $T0 4 + ^ = $ebp $T0 ^ = $esp $T0 8 + =  $23 $T0 4 - ^ = 
STACK WIN 4 c10c 5 0 0 4 0 0 0 1 $T0 $ebp = $eip $T0 4 + ^ = $ebp $T0 ^ = $esp $T0 8 + = 
STACK WIN 4 c111 27 0 0 0 0 0 0 1 $T0 .raSearch = $eip $T0 ^ = $esp $T0 4 + = 
STACK WIN 4 c138 1d 3 0 4 0 0 0 1 $T0 $ebp = $eip $T0 4 + ^ = $ebp $T0 ^ = $esp $T0 8 + = 
STACK WIN 4 c155 ef 25 0 0 10 c 0 1 $T0 $ebp = $eip $T0 4 + ^ = $ebp $T0 ^ = $esp $T0 8 + =  $20 $T0 16 - ^ =  $23 $T0 20 - ^ =  $24 $T0 24 - ^ = 
STACK WIN 4 c244 1c 0 0 0 0 0 0 1 $T0 .raSearch = $eip $T0 ^ = $esp $T0 4 + = 
STACK WIN 4 c260 4a 4 0 4 0 0 0 1 $T0 $ebp = $eip $T0 4 + ^ = $ebp $T0 ^ = $esp $T0 8 + = 
STACK WIN 4 c264 40 0 0 4 4 0 0 1 $T0 $ebp = $eip $T0 4 + ^ = $ebp $T0 ^ = $esp $T0 8 + =  $23 $T0 4 - ^ = 
STACK WIN 4 c2aa 52 5 0 4 0 0 0 1 $T0 $ebp = $eip $T0 4 + ^ = $ebp $T0 ^ = $esp $T0 8 + = 
STACK WIN 4 c2ae 4c 1 0 4 4 0 0 1 $T0 $ebp = $eip $T0 4 + ^ = $ebp $T0 ^ = $esp $T0 8 + =  $23 $T0 4 - ^ = 
STACK WIN 4 c2af 4a 0 0 4 8 0 0 1 $T0 $ebp = $eip $T0 4 + ^ = $ebp $T0 ^ = $esp $T0 8 + =  $23 $T0 4 - ^ =  $24 $T0 8 - ^ = 
STACK WIN 4 c2fc 42 0 0 0 0 0 0 1 $T0 .raSearch = $eip $T0 ^ = $esp $T0 4 + = 
STACK WIN 4 c306 23 0 0 0 4 0 0 1 $T0 .raSearch = $eip $T0 ^ = $esp $T0 4 + =  $23 $T0 4 - ^ = 
STACK WIN 4 c33e 60 b 0 4 0 0 0 1 $T0 $ebp = $eip $T0 4 + ^ = $ebp $T0 ^ = $esp $T0 8 + = 
STACK WIN 4 c349 53 0 0 4 4 0 0 1 $T0 $ebp = $eip $T0 4 + ^ = $ebp $T0 ^ = $esp $T0 8 + =  $23 $T0 4 - ^ = 
STACK WIN 4 c39e ab 1 0 0 0 0 0 1 $T0 .raSearch = $eip $T0 ^ = $esp $T0 4 + = 
STACK WIN 4 c39f 2b 0 0 0 4 0 0 1 $T0 .raSearch = $eip $T0 ^ = $esp $T0 4 + =  $23 $T0 4 - ^ = 
STACK WIN 4 c449 8 0 0 0 0 0 0 1 $T0 .raSearch = $eip $T0 ^ = $esp $T0 4 + = 
STACK WIN 4 c451 12 0 0 0 0 0 0 1 $T0 .raSearch = $eip $T0 ^ = $esp $T0 4 + = 
STACK WIN 4 c463 17c c 0 0 10 24 0 1 $T0 $ebp = $eip $T0 4 + ^ = $ebp $T0 ^ = $esp $T0 8 + =  $20 $T0 40 - ^ =  $23 $T0 44 - ^ =  $24 $T0 48 - ^ = 
STACK WIN 4 c584 14 0 0 0 10 24 0 1 $T0 $ebp = $T2 $esp = $T1 .raSearchStart = $eip $T1 ^ = $ebp $T0 = $esp $T1 4 + = 
STACK WIN 4 c5df a 0 0 0 0 0 0 1 $T0 .raSearch = $eip $T0 ^ = $esp $T0 4 + = 
STACK WIN 4 c5e9 1b 9 0 4 0 0 0 1 $T0 $ebp = $eip $T0 4 + ^ = $ebp $T0 ^ = $esp $T0 8 + = 
STACK WIN 4 c5ed 13 5 0 4 4 0 0 1 $T0 $ebp = $eip $T0 4 + ^ = $ebp $T0 ^ = $esp $T0 8 + =  $23 $T0 4 - ^ = 
STACK WIN 4 c604 18 0 0 0 0 0 0 1 $T0 .raSearch = $eip $T0 ^ = $esp $T0 4 + = 
STACK WIN 4 c61c 1b 9 0 4 0 0 0 1 $T0 $ebp = $eip $T0 4 + ^ = $ebp $T0 ^ = $esp $T0 8 + = 
STACK WIN 4 c620 13 5 0 4 4 0 0 1 $T0 $ebp = $eip $T0 4 + ^ = $ebp $T0 ^ = $esp $T0 8 + =  $23 $T0 4 - ^ = 
STACK WIN 4 c637 18 0 0 0 0 0 0 1 $T0 .raSearch = $eip $T0 ^ = $esp $T0 4 + = 
STACK WIN 4 c64f 2c 6 0 4 0 0 0 1 $T0 $ebp = $eip $T0 4 + ^ = $ebp $T0 ^ = $esp $T0 8 + = 
STACK WIN 4 c653 24 2 0 4 4 0 0 1 $T0 $ebp = $eip $T0 4 + ^ = $ebp $T0 ^ = $esp $T0 8 + =  $23 $T0 4 - ^ = 
STACK WIN 4 c67b 11 0 0 0 0 0 0 1 $T0 .raSearch = $eip $T0 ^ = $esp $T0 4 + = 
STACK WIN 4 c68c 2d 6 0 4 0 0 0 1 $T0 $ebp = $eip $T0 4 + ^ = $ebp $T0 ^ = $esp $T0 8 + = 
STACK WIN 4 c690 25 2 0 4 4 0 0 1 $T0 $ebp = $eip $T0 4 + ^ = $ebp $T0 ^ = $esp $T0 8 + =  $23 $T0 4 - ^ = 
STACK WIN 4 c6b9 1d 6 0 0 0 c 0 1 $T0 $ebp = $eip $T0 4 + ^ = $ebp $T0 ^ = $esp $T0 8 + = 
STACK WIN 4 c6d6 1d 6 0 0 0 c 0 1 $T0 $ebp = $eip $T0 4 + ^ = $ebp $T0 ^ = $esp $T0 8 + = 
STACK WIN 4 c6f3 d 0 0 0 0 0 0 1 $T0 .raSearch = $eip $T0 ^ = $esp $T0 4 + = 
STACK WIN 4 c700 197 e 0 0 0 24 0 1 $T0 $ebp = $eip $T0 4 + ^ = $ebp $T0 ^ = $esp $T0 8 + = 
STACK WIN 4 c70e 187 0 0 0 4 24 0 1 $T0 $ebp = $eip $T0 4 + ^ = $ebp $T0 ^ = $esp $T0 8 + =  $20 $T0 40 - ^ = 
STACK WIN 4 c736 ef 0 0 0 8 24 0 1 $T0 $ebp = $eip $T0 4 + ^ = $ebp $T0 ^ = $esp $T0 8 + =  $20 $T0 40 - ^ =  $23 $T0 44 - ^ = 
STACK WIN 4 c737 ed 0 0 0 c 24 0 1 $T0 $ebp = $eip $T0 4 + ^ = $ebp $T0 ^ = $esp $T0 8 + =  $20 $T0 40 - ^ =  $23 $T0 44 - ^ =  $24 $T0 48 - ^ = 
STACK WIN 4 c897 4 0 0 0 0 0 0 1 $T0 .raSearch = $eip $T0 ^ = $esp $T0 4 + = 
STACK WIN 4 c89b c 0 0 0 0 0 0 1 $T0 .raSearch = $eip $T0 ^ = $esp $T0 4 + = 
STACK WIN 4 c8a7 11a a 0 4 4 324 0 1 $T0 $ebp = $eip $T0 4 + ^ = $ebp $T0 ^ = $esp $T0 8 + =  $20 $T0 808 - ^ = 
STACK WIN 4 c9c1 31 6 0 0 0 44 0 1 $T0 $ebp = $eip $T0 4 + ^ = $ebp $T0 ^ = $esp $T0 8 + = 
STACK WIN 4 c9f2 5 0 0 0 0 0 0 1 $T0 .raSearch = $eip $T0 ^ = $esp $T0 4 + = 
STACK WIN 4 c9f7 3 0 0 0 0 0 0 1 $T0 .raSearch = $eip $T0 ^ = $esp $T0 4 + = 
STACK WIN 4 c9fa 43 0 0 0 0 0 0 1 $T0 .raSearch = $eip $T0 ^ = $esp $T0 4 + = 
STACK WIN 4 ca3d c 0 0 0 0 0 0 1 $T0 .raSearch = $eip $T0 ^ = $esp $T0 4 + = 
STACK WIN 4 ca49 41 3 0 4 0 0 0 1 $T0 $ebp = $eip $T0 4 + ^ = $ebp $T0 ^ = $esp $T0 8 + = 
STACK WIN 4 ca8a 8 0 0 4 0 0 0 1 $T0 .raSearch = $eip $T0 ^ = $esp $T0 4 + = 
STACK WIN 4 cafb 23 3 0 10 0 0 0 1 $T0 $ebp = $eip $T0 4 + ^ = $ebp $T0 ^ = $esp $T0 8 + = 
STACK WIN 4 cb1e 1 0 0 0 0 0 0 1 $T0 .raSearch = $eip $T0 ^ = $esp $T0 4 + = 
STACK WIN 4 cb1f 4d 6 0 0 0 14 0 1 $T0 $ebp = $eip $T0 4 + ^ = $ebp $T0 ^ = $esp $T0 8 + = 
STACK WIN 4 cb6c 4b 8 0 0 0 0 0 1 $T0 .raSearch = $eip $T0 ^ = $esp $T0 4 + = 
STACK WIN 4 cb73 43 1 0 0 4 0 0 1 $T0 .raSearch = $eip $T0 ^ = $esp $T0 4 + =  $23 $T0 4 - ^ = 
STACK WIN 4 cb74 3b 0 0 0 8 0 0 1 $T0 .raSearch = $eip $T0 ^ = $esp $T0 4 + =  $23 $T0 4 - ^ =  $24 $T0 8 - ^ = 
STACK WIN 4 cbb7 6 0 0 0 0 0 0 1 $T0 .raSearch = $eip $T0 ^ = $esp $T0 4 + = 
STACK WIN 4 cbbd c 0 0 0 0 0 0 1 $T0 .raSearch = $eip $T0 ^ = $esp $T0 4 + = 
STACK WIN 4 cbc9 3 0 0 4 0 0 0 1 $T0 .raSearch = $eip $T0 ^ = $esp $T0 4 + = 
STACK WIN 4 cbcc 21 0 0 0 0 0 0 1 $T0 .raSearch = $eip $T0 ^ = $esp $T0 4 + = 
STACK WIN 4 cbed 6 0 0 0 0 0 0 1 $T0 .raSearch = $eip $T0 ^ = $esp $T0 4 + = 
STACK WIN 4 cbf3 1d 0 0 0 0 0 0 1 $T0 .raSearch = $eip $T0 ^ = $esp $T0 4 + = 
STACK WIN 4 cc10 c 0 0 0 0 0 0 1 $T0 .raSearch = $eip $T0 ^ = $esp $T0 4 + = 
STACK WIN 4 cc1c 6 0 0 0 0 0 0 1 $T0 .raSearch = $eip $T0 ^ = $esp $T0 4 + = 
STACK WIN 4 cc22 6 0 0 0 0 0 0 1 $T0 .raSearch = $eip $T0 ^ = $esp $T0 4 + = 
STACK WIN 4 cc28 2c 2 0 0 0 0 0 1 $T0 .raSearch = $eip $T0 ^ = $esp $T0 4 + = 
STACK WIN 4 cc29 2a 1 0 0 4 0 0 1 $T0 .raSearch = $eip $T0 ^ = $esp $T0 4 + =  $20 $T0 4 - ^ = 
STACK WIN 4 cc2a 28 0 0 0 8 0 0 1 $T0 .raSearch = $eip $T0 ^ = $esp $T0 4 + =  $20 $T0 4 - ^ =  $23 $T0 8 - ^ = 
STACK WIN 4 cc39 18 0 0 0 c 0 0 1 $T0 .raSearch = $eip $T0 ^ = $esp $T0 4 + =  $20 $T0 4 - ^ =  $23 $T0 8 - ^ =  $24 $T0 12 - ^ = 
STACK WIN 4 cc54 2c 2 0 0 0 0 0 1 $T0 .raSearch = $eip $T0 ^ = $esp $T0 4 + = 
STACK WIN 4 cc55 2a 1 0 0 4 0 0 1 $T0 .raSearch = $eip $T0 ^ = $esp $T0 4 + =  $20 $T0 4 - ^ = 
STACK WIN 4 cc56 28 0 0 0 8 0 0 1 $T0 .raSearch = $eip $T0 ^ = $esp $T0 4 + =  $20 $T0 4 - ^ =  $23 $T0 8 - ^ = 
STACK WIN 4 cc65 18 0 0 0 c 0 0 1 $T0 .raSearch = $eip $T0 ^ = $esp $T0 4 + =  $20 $T0 4 - ^ =  $23 $T0 8 - ^ =  $24 $T0 12 - ^ = 
STACK WIN 4 ce7f 9 3 0 4 0 0 0 1 $T0 $ebp = $eip $T0 4 + ^ = $ebp $T0 ^ = $esp $T0 8 + = 
STACK WIN 4 ce88 5 0 0 4 0 0 0 1 $T0 $ebp = $eip $T0 4 + ^ = $ebp $T0 ^ = $esp $T0 8 + = 
STACK WIN 0 c025 13 0 0 0 0 0 0 0 0
STACK WIN 0 c584 14 0 0 0 0 0 0 0 0
